target datalayout = "e-m:e-p270:32:32-p271:32:32-p272:64:64-i64:64-i128:128-f80:128-n8:16:32:64-S128"
target triple = "x86_64-pc-linux-gnu"

%struct.AVFilterContext = type { ptr, ptr, ptr, ptr, ptr, i32, ptr, ptr, i32, ptr, ptr, i32, i32, ptr, ptr, ptr, ptr, i32, ptr, i32, i32 }
%struct.LoudNormContext = type { ptr, double, double, double, double, double, double, double, double, i32, i32, i32, ptr, i32, i32, i32, [30 x double], [21 x double], double, i32, [2 x double], ptr, ptr, i32, i32, i32, i32, i32, i32, i32, i32, [30 x i64], i32, i32, i32, i32, ptr, ptr }

; Function Attrs: cold nounwind optsize uwtable
define internal i32 @init(ptr noundef %0) #0 {
  %2 = alloca ptr, align 8
  %3 = alloca ptr, align 8
  %4 = alloca double, align 8
  %5 = alloca double, align 8
  store ptr %0, ptr %2, align 8, !tbaa !4
  call void @llvm.lifetime.start.p0(i64 8, ptr %3) #7
  %6 = load ptr, ptr %2, align 8, !tbaa !4
  %7 = getelementptr inbounds nuw %struct.AVFilterContext, ptr %6, i32 0, i32 9
  %8 = load ptr, ptr %7, align 8, !tbaa !9
  store ptr %8, ptr %3, align 8, !tbaa !22
  %9 = load ptr, ptr %3, align 8, !tbaa !22
  %10 = getelementptr inbounds nuw %struct.LoudNormContext, ptr %9, i32 0, i32 32
  store i32 0, ptr %10, align 8, !tbaa !24
  %11 = load ptr, ptr %3, align 8, !tbaa !22
  %12 = getelementptr inbounds nuw %struct.LoudNormContext, ptr %11, i32 0, i32 9
  %13 = load i32, ptr %12, align 8, !tbaa !28
  %14 = icmp ne i32 %13, 0
  br i1 %14, label %15, label %69

15:                                               ; preds = %1
  call void @llvm.lifetime.start.p0(i64 8, ptr %4) #7
  call void @llvm.lifetime.start.p0(i64 8, ptr %5) #7
  %16 = load ptr, ptr %3, align 8, !tbaa !22
  %17 = getelementptr inbounds nuw %struct.LoudNormContext, ptr %16, i32 0, i32 1
  %18 = load double, ptr %17, align 8, !tbaa !29
  %19 = load ptr, ptr %3, align 8, !tbaa !22
  %20 = getelementptr inbounds nuw %struct.LoudNormContext, ptr %19, i32 0, i32 4
  %21 = load double, ptr %20, align 8, !tbaa !30
  %22 = fsub nsz double %18, %21
  store double %22, ptr %4, align 8, !tbaa !31
  %23 = load ptr, ptr %3, align 8, !tbaa !22
  %24 = getelementptr inbounds nuw %struct.LoudNormContext, ptr %23, i32 0, i32 6
  %25 = load double, ptr %24, align 8, !tbaa !32
  %26 = load double, ptr %4, align 8, !tbaa !31
  %27 = fadd nsz double %25, %26
  store double %27, ptr %5, align 8, !tbaa !31
  %28 = load ptr, ptr %3, align 8, !tbaa !22
  %29 = getelementptr inbounds nuw %struct.LoudNormContext, ptr %28, i32 0, i32 6
  %30 = load double, ptr %29, align 8, !tbaa !32
  %31 = fcmp nsz une double %30, 9.900000e+01
  br i1 %31, label %32, label %68

32:                                               ; preds = %15
  %33 = load ptr, ptr %3, align 8, !tbaa !22
  %34 = getelementptr inbounds nuw %struct.LoudNormContext, ptr %33, i32 0, i32 7
  %35 = load double, ptr %34, align 8, !tbaa !33
  %36 = fcmp nsz une double %35, -7.000000e+01
  br i1 %36, label %37, label %68

37:                                               ; preds = %32
  %38 = load ptr, ptr %3, align 8, !tbaa !22
  %39 = getelementptr inbounds nuw %struct.LoudNormContext, ptr %38, i32 0, i32 5
  %40 = load double, ptr %39, align 8, !tbaa !34
  %41 = fcmp nsz une double %40, 0.000000e+00
  br i1 %41, label %42, label %68

42:                                               ; preds = %37
  %43 = load ptr, ptr %3, align 8, !tbaa !22
  %44 = getelementptr inbounds nuw %struct.LoudNormContext, ptr %43, i32 0, i32 4
  %45 = load double, ptr %44, align 8, !tbaa !30
  %46 = fcmp nsz une double %45, 0.000000e+00
  br i1 %46, label %47, label %68

47:                                               ; preds = %42
  %48 = load double, ptr %5, align 8, !tbaa !31
  %49 = load ptr, ptr %3, align 8, !tbaa !22
  %50 = getelementptr inbounds nuw %struct.LoudNormContext, ptr %49, i32 0, i32 3
  %51 = load double, ptr %50, align 8, !tbaa !35
  %52 = fcmp nsz ole double %48, %51
  br i1 %52, label %53, label %67

53:                                               ; preds = %47
  %54 = load ptr, ptr %3, align 8, !tbaa !22
  %55 = getelementptr inbounds nuw %struct.LoudNormContext, ptr %54, i32 0, i32 5
  %56 = load double, ptr %55, align 8, !tbaa !34
  %57 = load ptr, ptr %3, align 8, !tbaa !22
  %58 = getelementptr inbounds nuw %struct.LoudNormContext, ptr %57, i32 0, i32 2
  %59 = load double, ptr %58, align 8, !tbaa !36
  %60 = fcmp nsz ole double %56, %59
  br i1 %60, label %61, label %67

61:                                               ; preds = %53
  %62 = load ptr, ptr %3, align 8, !tbaa !22
  %63 = getelementptr inbounds nuw %struct.LoudNormContext, ptr %62, i32 0, i32 32
  store i32 3, ptr %63, align 8, !tbaa !24
  %64 = load double, ptr %4, align 8, !tbaa !31
  %65 = load ptr, ptr %3, align 8, !tbaa !22
  %66 = getelementptr inbounds nuw %struct.LoudNormContext, ptr %65, i32 0, i32 8
  store double %64, ptr %66, align 8, !tbaa !37
  br label %67

67:                                               ; preds = %61, %53, %47
  br label %68

68:                                               ; preds = %67, %42, %37, %32, %15
  call void @llvm.lifetime.end.p0(i64 8, ptr %5) #7
  call void @llvm.lifetime.end.p0(i64 8, ptr %4) #7
  br label %69

69:                                               ; preds = %68, %1
  call void @llvm.lifetime.end.p0(i64 8, ptr %3) #7
  ret i32 0
}