; Function Attrs: cold mustprogress nofree norecurse nosync nounwind optsize willreturn memory(readwrite, inaccessiblemem: none) uwtable
define internal noundef i32 @init(ptr noundef readonly captures(none) %0) #0 {
  %2 = getelementptr inbounds nuw i8, ptr %0, i64 72
  %3 = load ptr, ptr %2, align 8, !tbaa !4
  %4 = getelementptr inbounds nuw i8, ptr %3, i64 840
  store i32 0, ptr %4, align 8, !tbaa !20
  %5 = getelementptr inbounds nuw i8, ptr %3, i64 72
  %6 = load i32, ptr %5, align 8, !tbaa !24
  %.not = icmp eq i32 %6, 0
  br i1 %.not, label %36, label %7

7:                                                ; preds = %1
  %8 = getelementptr inbounds nuw i8, ptr %3, i64 8
  %9 = load double, ptr %8, align 8, !tbaa !25
  %10 = getelementptr inbounds nuw i8, ptr %3, i64 32
  %11 = load double, ptr %10, align 8, !tbaa !26
  %12 = fsub nsz double %9, %11
  %13 = getelementptr inbounds nuw i8, ptr %3, i64 48
  %14 = load double, ptr %13, align 8, !tbaa !27
  %15 = fadd nsz double %14, %12
  %16 = fcmp nsz une double %14, 9.900000e+01
  br i1 %16, label %17, label %36

17:                                               ; preds = %7
  %18 = getelementptr inbounds nuw i8, ptr %3, i64 56
  %19 = load double, ptr %18, align 8, !tbaa !28
  %20 = fcmp nsz une double %19, -7.000000e+01
  br i1 %20, label %21, label %36

21:                                               ; preds = %17
  %22 = getelementptr inbounds nuw i8, ptr %3, i64 40
  %23 = load double, ptr %22, align 8, !tbaa !29
  %24 = fcmp nsz une double %23, 0.000000e+00
  %25 = fcmp nsz une double %11, 0.000000e+00
  %or.cond = select i1 %24, i1 %25, i1 false
  br i1 %or.cond, label %26, label %36

26:                                               ; preds = %21
  %27 = getelementptr inbounds nuw i8, ptr %3, i64 24
  %28 = load double, ptr %27, align 8, !tbaa !30
  %29 = fcmp nsz ugt double %15, %28
  br i1 %29, label %36, label %30

30:                                               ; preds = %26
  %31 = getelementptr inbounds nuw i8, ptr %3, i64 16
  %32 = load double, ptr %31, align 8, !tbaa !31
  %33 = fcmp nsz ugt double %23, %32
  br i1 %33, label %36, label %34

34:                                               ; preds = %30
  store i32 3, ptr %4, align 8, !tbaa !20
  %35 = getelementptr inbounds nuw i8, ptr %3, i64 64
  store double %12, ptr %35, align 8, !tbaa !32
  br label %36

36:                                               ; preds = %7, %17, %21, %34, %30, %26, %1
  ret i32 0
}